target datalayout = "e-m:e-p270:32:32-p271:32:32-p272:64:64-i64:64-i128:128-f80:128-n8:16:32:64-S128"
target triple = "x86_64-pc-linux-gnu"

%struct.BackendGlobalData = type <{ ptr, ptr, i8, i8, i8, i8, i8, i8, i8, i8, i8, [3 x i8], i32, ptr, ptr, ptr, ptr, ptr, ptr, ptr, ptr, ptr, ptr, ptr, ptr, ptr, i32, %struct.jvmtiCapabilities, i8, [3 x i8], %struct.jvmtiEventCallbacks, ptr, ptr, ptr, ptr, ptr, ptr, ptr, i32, [4 x i8], ptr, i64, i32, [4 x i8], ptr, i32, i32, i8, i8, [6 x i8] }>
%struct.jvmtiCapabilities = type { i64, i64 }
%struct.jvmtiEventCallbacks = type { ptr, ptr, ptr, ptr, ptr, ptr, ptr, ptr, ptr, ptr, ptr, ptr, ptr, ptr, ptr, ptr, ptr, ptr, ptr, ptr, ptr, ptr, ptr, ptr, ptr, ptr, ptr, ptr, ptr, ptr, ptr, ptr, ptr, ptr, ptr, ptr, ptr, ptr, ptr }
%struct.jvmtiInterface_1_ = type { ptr, ptr, ptr, ptr, ptr, ptr, ptr, ptr, ptr, ptr, ptr, ptr, ptr, ptr, ptr, ptr, ptr, ptr, ptr, ptr, ptr, ptr, ptr, ptr, ptr, ptr, ptr, ptr, ptr, ptr, ptr, ptr, ptr, ptr, ptr, ptr, ptr, ptr, ptr, ptr, ptr, ptr, ptr, ptr, ptr, ptr, ptr, ptr, ptr, ptr, ptr, ptr, ptr, ptr, ptr, ptr, ptr, ptr, ptr, ptr, ptr, ptr, ptr, ptr, ptr, ptr, ptr, ptr, ptr, ptr, ptr, ptr, ptr, ptr, ptr, ptr, ptr, ptr, ptr, ptr, ptr, ptr, ptr, ptr, ptr, ptr, ptr, ptr, ptr, ptr, ptr, ptr, ptr, ptr, ptr, ptr, ptr, ptr, ptr, ptr, ptr, ptr, ptr, ptr, ptr, ptr, ptr, ptr, ptr, ptr, ptr, ptr, ptr, ptr, ptr, ptr, ptr, ptr, ptr, ptr, ptr, ptr, ptr, ptr, ptr, ptr, ptr, ptr, ptr, ptr, ptr, ptr, ptr, ptr, ptr, ptr, ptr, ptr, ptr, ptr, ptr, ptr, ptr, ptr, ptr, ptr, ptr, ptr, ptr, ptr, ptr, ptr, ptr, ptr, ptr, ptr }

@gdata = hidden global ptr null, align 8
@stderr = external global ptr, align 8
@.str = private unnamed_addr constant [17 x i8] c"JDWP exit error \00", align 1
@.str.1 = private unnamed_addr constant [2 x i8] c"\0A\00", align 1
@.str.2 = private unnamed_addr constant [19 x i8] c"%s(%d): %s [%s:%d]\00", align 1
@.str.4 = private unnamed_addr constant [47 x i8] c"src/jdk.jdwp.agent/share/native/libjdwp/util.c\00", align 1
@.str.9 = private unnamed_addr constant [5 x i8] c"%s()\00", align 1
@.str.45 = private unnamed_addr constant [6 x i8] c"JVMTI\00", align 1
@.str.121 = private unnamed_addr constant [11 x i8] c"Deallocate\00", align 1
@.str.122 = private unnamed_addr constant [30 x i8] c"Can't deallocate jvmti memory\00", align 1

; Function Attrs: nounwind uwtable
define hidden void @jvmtiDeallocate(ptr noundef %0) #0 {
  %2 = alloca ptr, align 8
  %3 = alloca i32, align 4
  store ptr %0, ptr %2, align 8
  %4 = load ptr, ptr %2, align 8
  %5 = icmp eq ptr %4, null
  br i1 %5, label %6, label %7

6:                                                ; preds = %1
  br label %35

7:                                                ; preds = %1
  %8 = load ptr, ptr @gdata, align 8
  %9 = getelementptr inbounds %struct.BackendGlobalData, ptr %8, i32 0, i32 38
  %10 = load i32, ptr %9, align 8
  %11 = and i32 %10, 4
  %12 = icmp ne i32 %11, 0
  br i1 %12, label %13, label %14

13:                                               ; preds = %7
  call void @log_message_begin(ptr noundef @.str.45, ptr noundef @.str.4, i32 noundef 1774)
  call void (ptr, ...) @log_message_end(ptr noundef @.str.9, ptr noundef @.str.121)
  br label %15

14:                                               ; preds = %7
  br label %15

15:                                               ; preds = %14, %13
  %16 = load ptr, ptr @gdata, align 8
  %17 = getelementptr inbounds %struct.BackendGlobalData, ptr %16, i32 0, i32 0
  %18 = load ptr, ptr %17, align 8
  %19 = load ptr, ptr %18, align 8
  %20 = getelementptr inbounds %struct.jvmtiInterface_1_, ptr %19, i32 0, i32 46
  %21 = load ptr, ptr %20, align 8
  %22 = load ptr, ptr @gdata, align 8
  %23 = getelementptr inbounds %struct.BackendGlobalData, ptr %22, i32 0, i32 0
  %24 = load ptr, ptr %23, align 8
  %25 = load ptr, ptr %2, align 8
  %26 = call i32 %21(ptr noundef %24, ptr noundef %25)
  store i32 %26, ptr %3, align 4
  %27 = load i32, ptr %3, align 4
  %28 = icmp ne i32 %27, 0
  br i1 %28, label %29, label %35

29:                                               ; preds = %15
  %30 = load ptr, ptr @stderr, align 8
  %31 = load i32, ptr %3, align 4
  %32 = call ptr @jvmtiErrorText(i32 noundef %31)
  %33 = load i32, ptr %3, align 4
  call void (ptr, ptr, ptr, ptr, ...) @print_message(ptr noundef %30, ptr noundef @.str, ptr noundef @.str.1, ptr noundef @.str.2, ptr noundef %32, i32 noundef %33, ptr noundef @.str.122, ptr noundef @.str.4, i32 noundef 1777)
  %34 = load i32, ptr %3, align 4
  call void @debugInit_exit(i32 noundef %34, ptr noundef @.str.122)
  br label %35

35:                                               ; preds = %29, %15, %6
  ret void
}