; Function Attrs: nounwind uwtable
define hidden void @jvmtiDeallocate(ptr noundef %0) local_unnamed_addr #0 {
  %2 = icmp eq ptr %0, null
  br i1 %2, label %19, label %3

3:                                                ; preds = %1
  %4 = load ptr, ptr @gdata, align 8
  %5 = getelementptr inbounds i8, ptr %4, i64 528
  %6 = load i32, ptr %5, align 8
  %7 = and i32 %6, 4
  %.not = icmp eq i32 %7, 0
  br i1 %.not, label %9, label %8

8:                                                ; preds = %3
  tail call void @log_message_begin(ptr noundef nonnull @.str.45, ptr noundef nonnull @.str.4, i32 noundef 1774) #14
  tail call void (ptr, ...) @log_message_end(ptr noundef nonnull @.str.9, ptr noundef nonnull @.str.121) #14
  %.pre = load ptr, ptr @gdata, align 8
  br label %9

9:                                                ; preds = %3, %8
  %10 = phi ptr [ %4, %3 ], [ %.pre, %8 ]
  %11 = load ptr, ptr %10, align 8
  %12 = load ptr, ptr %11, align 8
  %13 = getelementptr inbounds i8, ptr %12, i64 368
  %14 = load ptr, ptr %13, align 8
  %15 = tail call i32 %14(ptr noundef nonnull %11, ptr noundef nonnull %0) #14
  %.not6 = icmp eq i32 %15, 0
  br i1 %.not6, label %19, label %16

16:                                               ; preds = %9
  %17 = load ptr, ptr @stderr, align 8
  %18 = tail call ptr @jvmtiErrorText(i32 noundef %15) #14
  tail call void (ptr, ptr, ptr, ptr, ...) @print_message(ptr noundef %17, ptr noundef nonnull @.str, ptr noundef nonnull @.str.1, ptr noundef nonnull @.str.2, ptr noundef %18, i32 noundef %15, ptr noundef nonnull @.str.122, ptr noundef nonnull @.str.4, i32 noundef 1777) #14
  tail call void @debugInit_exit(i32 noundef %15, ptr noundef nonnull @.str.122) #14
  br label %19

19:                                               ; preds = %1, %16, %9
  ret void
}